target datalayout = "e-m:e-p270:32:32-p271:32:32-p272:64:64-i64:64-i128:128-f80:128-n8:16:32:64-S128"
target triple = "x86_64-pc-linux-gnu"

%"struct.std::atomic" = type { %"struct.std::__atomic_base" }
%"struct.std::__atomic_base" = type { i64 }
%"class.folly::Executor::KeepAlive" = type { i64 }
%"class.folly::StrandExecutor" = type { %"class.folly::SerializedExecutor", %"struct.std::atomic", %"class.folly::Executor::KeepAlive", %"class.std::shared_ptr" }
%"class.folly::SerializedExecutor" = type { %"class.folly::SequencedExecutor" }
%"class.folly::SequencedExecutor" = type { %"class.folly::Executor" }
%"class.folly::Executor" = type { ptr }
%"class.std::shared_ptr" = type { %"class.std::__shared_ptr" }
%"class.std::__shared_ptr" = type { ptr, %"class.std::__shared_count" }
%"class.std::__shared_count" = type { ptr }
%"class.folly::Executor::KeepAlive.193" = type { i64 }

@_ZTVN5folly8ExecutorE = external unnamed_addr constant { [9 x ptr] }, align 8

; Function Attrs: mustprogress nounwind uwtable
define linkonce_odr void @_ZNSt13__atomic_baseImEC2Em(ptr noundef nonnull align 8 dereferenceable(8) %0, i64 noundef %1) unnamed_addr #0 comdat align 2 {
  %3 = alloca ptr, align 8
  %4 = alloca i64, align 8
  store ptr %0, ptr %3, align 8, !tbaa !93
  store i64 %1, ptr %4, align 8, !tbaa !23
  %5 = load ptr, ptr %3, align 8
  %6 = getelementptr inbounds nuw %"struct.std::__atomic_base", ptr %5, i32 0, i32 0
  %7 = load i64, ptr %4, align 8, !tbaa !23
  store i64 %7, ptr %6, align 8, !tbaa !95
  ret void
}

; Function Attrs: inlinehint mustprogress nounwind uwtable
define linkonce_odr void @_ZN5folly17SequencedExecutorC2Ev(ptr noundef nonnull align 8 dereferenceable(8) %0, ptr noundef %1) unnamed_addr #3 comdat align 2 {
  %3 = alloca ptr, align 8
  %4 = alloca ptr, align 8
  store ptr %0, ptr %3, align 8, !tbaa !14
  store ptr %1, ptr %4, align 8, !tbaa !65
  %5 = load ptr, ptr %3, align 8
  %6 = load ptr, ptr %4, align 8
  %7 = load ptr, ptr %6, align 8
  store ptr %7, ptr %5, align 8, !tbaa !21
  %8 = getelementptr inbounds ptr, ptr %6, i64 1
  %9 = load ptr, ptr %8, align 8
  %10 = load ptr, ptr %5, align 8, !tbaa !21
  %11 = getelementptr i8, ptr %10, i64 -72
  %12 = load i64, ptr %11, align 8
  %13 = getelementptr inbounds i8, ptr %5, i64 %12
  store ptr %9, ptr %13, align 8, !tbaa !21
  ret void
}

; Function Attrs: noinline noreturn nounwind uwtable
define linkonce_odr hidden void @__clang_call_terminate(ptr noundef %0) #13 comdat {
  %2 = call ptr @__cxa_begin_catch(ptr %0) #33
  call void @_ZSt9terminatev() #38
  unreachable
}

; Function Attrs: inlinehint mustprogress nounwind uwtable
define linkonce_odr noundef i64 @_ZSt10__exchangeImiET_RS0_OT0_(ptr noundef nonnull align 8 dereferenceable(8) %0, ptr noundef nonnull align 4 dereferenceable(4) %1) #3 comdat {
  %3 = alloca ptr, align 8
  %4 = alloca ptr, align 8
  %5 = alloca i64, align 8
  store ptr %0, ptr %3, align 8, !tbaa !212
  store ptr %1, ptr %4, align 8, !tbaa !231
  call void @llvm.lifetime.start.p0(i64 8, ptr %5) #33
  %6 = load ptr, ptr %3, align 8, !tbaa !212
  %7 = load i64, ptr %6, align 8, !tbaa !23
  store i64 %7, ptr %5, align 8, !tbaa !23
  %8 = load ptr, ptr %4, align 8, !tbaa !231
  %9 = load i32, ptr %8, align 4, !tbaa !132
  %10 = sext i32 %9 to i64
  %11 = load ptr, ptr %3, align 8, !tbaa !212
  store i64 %10, ptr %11, align 8, !tbaa !23
  %12 = load i64, ptr %5, align 8, !tbaa !23
  call void @llvm.lifetime.end.p0(i64 8, ptr %5) #33
  ret i64 %12
}

; Function Attrs: mustprogress nounwind uwtable
define linkonce_odr noundef ptr @_ZNK5folly8Executor9KeepAliveIS0_E3getEv(ptr noundef nonnull align 8 dereferenceable(8) %0) #0 comdat align 2 {
  %2 = alloca ptr, align 8
  store ptr %0, ptr %2, align 8, !tbaa !270
  %3 = load ptr, ptr %2, align 8
  %4 = getelementptr inbounds nuw %"class.folly::Executor::KeepAlive", ptr %3, i32 0, i32 0
  %5 = load i64, ptr %4, align 8, !tbaa !272
  %6 = and i64 %5, -4
  %7 = inttoptr i64 %6 to ptr
  ret ptr %7
}

; Function Attrs: mustprogress nounwind uwtable
define linkonce_odr void @_ZN5folly8Executor9KeepAliveINS_14StrandExecutorEEC2EPS2_m(ptr noundef nonnull align 8 dereferenceable(8) %0, ptr noundef %1, i64 noundef %2) unnamed_addr #0 comdat align 2 {
  %4 = alloca ptr, align 8
  %5 = alloca ptr, align 8
  %6 = alloca i64, align 8
  store ptr %0, ptr %4, align 8, !tbaa !1184
  store ptr %1, ptr %5, align 8, !tbaa !16
  store i64 %2, ptr %6, align 8, !tbaa !23
  %7 = load ptr, ptr %4, align 8
  %8 = getelementptr inbounds nuw %"class.folly::Executor::KeepAlive.193", ptr %7, i32 0, i32 0
  %9 = load ptr, ptr %5, align 8, !tbaa !16
  %10 = ptrtoint ptr %9 to i64
  %11 = load i64, ptr %6, align 8, !tbaa !23
  %12 = or i64 %10, %11
  store i64 %12, ptr %8, align 8, !tbaa !1186
  ret void
}

; Function Attrs: mustprogress nounwind uwtable
define linkonce_odr void @_ZNSt6atomicImEC2Em(ptr noundef nonnull align 8 dereferenceable(8) %0, i64 noundef %1) unnamed_addr #0 comdat align 2 {
  %3 = alloca ptr, align 8
  %4 = alloca i64, align 8
  store ptr %0, ptr %3, align 8, !tbaa !79
  store i64 %1, ptr %4, align 8, !tbaa !23
  %5 = load ptr, ptr %3, align 8
  %6 = load i64, ptr %4, align 8, !tbaa !23
  call void @_ZNSt13__atomic_baseImEC2Em(ptr noundef nonnull align 8 dereferenceable(8) %5, i64 noundef %6) #33
  ret void
}

; Function Attrs: inlinehint mustprogress nounwind uwtable
define linkonce_odr void @_ZN5folly18SerializedExecutorC2Ev(ptr noundef nonnull align 8 dereferenceable(8) %0, ptr noundef %1) unnamed_addr #3 comdat align 2 {
  %3 = alloca ptr, align 8
  %4 = alloca ptr, align 8
  store ptr %0, ptr %3, align 8, !tbaa !7
  store ptr %1, ptr %4, align 8, !tbaa !65
  %5 = load ptr, ptr %3, align 8
  %6 = load ptr, ptr %4, align 8
  %7 = getelementptr inbounds ptr, ptr %6, i64 1
  call void @_ZN5folly17SequencedExecutorC2Ev(ptr noundef nonnull align 8 dereferenceable(8) %5, ptr noundef %7) #33
  %8 = load ptr, ptr %6, align 8
  store ptr %8, ptr %5, align 8, !tbaa !21
  %9 = getelementptr inbounds ptr, ptr %6, i64 3
  %10 = load ptr, ptr %9, align 8
  %11 = load ptr, ptr %5, align 8, !tbaa !21
  %12 = getelementptr i8, ptr %11, i64 -72
  %13 = load i64, ptr %12, align 8
  %14 = getelementptr inbounds i8, ptr %5, i64 %13
  store ptr %10, ptr %14, align 8, !tbaa !21
  ret void
}

; Function Attrs: inlinehint mustprogress nounwind uwtable
define linkonce_odr void @_ZN5folly8ExecutorC2Ev(ptr noundef nonnull align 8 dereferenceable(8) %0) unnamed_addr #3 comdat align 2 {
  %2 = alloca ptr, align 8
  store ptr %0, ptr %2, align 8, !tbaa !12
  %3 = load ptr, ptr %2, align 8
  store ptr getelementptr inbounds inrange(-16, 56) ({ [9 x ptr] }, ptr @_ZTVN5folly8ExecutorE, i32 0, i32 0, i32 2), ptr %3, align 8, !tbaa !21
  ret void
}

; Function Attrs: inlinehint mustprogress nounwind uwtable
define linkonce_odr noundef i64 @_ZSt8exchangeImiET_RS0_OT0_(ptr noundef nonnull align 8 dereferenceable(8) %0, ptr noundef nonnull align 4 dereferenceable(4) %1) #3 comdat personality ptr @__gxx_personality_v0 {
  %3 = alloca ptr, align 8
  %4 = alloca ptr, align 8
  store ptr %0, ptr %3, align 8, !tbaa !212
  store ptr %1, ptr %4, align 8, !tbaa !231
  %5 = load ptr, ptr %3, align 8, !tbaa !212
  %6 = load ptr, ptr %4, align 8, !tbaa !231
  %7 = invoke noundef i64 @_ZSt10__exchangeImiET_RS0_OT0_(ptr noundef nonnull align 8 dereferenceable(8) %5, ptr noundef nonnull align 4 dereferenceable(4) %6)
          to label %8 unwind label %9

8:                                                ; preds = %2
  ret i64 %7

9:                                                ; preds = %2
  %10 = landingpad { ptr, i32 }
          catch ptr null
  %11 = extractvalue { ptr, i32 } %10, 0
  call void @__clang_call_terminate(ptr %11) #38
  unreachable
}

; Function Attrs: mustprogress nounwind uwtable
define linkonce_odr void @_ZNSt14__shared_countILN9__gnu_cxx12_Lock_policyE2EE7_M_swapERS2_(ptr noundef nonnull align 8 dereferenceable(8) %0, ptr noundef nonnull align 8 dereferenceable(8) %1) #0 comdat align 2 {
  %3 = alloca ptr, align 8
  %4 = alloca ptr, align 8
  %5 = alloca ptr, align 8
  store ptr %0, ptr %3, align 8, !tbaa !42
  store ptr %1, ptr %4, align 8, !tbaa !42
  %6 = load ptr, ptr %3, align 8
  call void @llvm.lifetime.start.p0(i64 8, ptr %5) #33
  %7 = load ptr, ptr %4, align 8, !tbaa !42
  %8 = getelementptr inbounds nuw %"class.std::__shared_count", ptr %7, i32 0, i32 0
  %9 = load ptr, ptr %8, align 8, !tbaa !50
  store ptr %9, ptr %5, align 8, !tbaa !68
  %10 = getelementptr inbounds nuw %"class.std::__shared_count", ptr %6, i32 0, i32 0
  %11 = load ptr, ptr %10, align 8, !tbaa !50
  %12 = load ptr, ptr %4, align 8, !tbaa !42
  %13 = getelementptr inbounds nuw %"class.std::__shared_count", ptr %12, i32 0, i32 0
  store ptr %11, ptr %13, align 8, !tbaa !50
  %14 = load ptr, ptr %5, align 8, !tbaa !68
  %15 = getelementptr inbounds nuw %"class.std::__shared_count", ptr %6, i32 0, i32 0
  store ptr %14, ptr %15, align 8, !tbaa !50
  call void @llvm.lifetime.end.p0(i64 8, ptr %5) #33
  ret void
}

; Function Attrs: mustprogress nounwind uwtable
define linkonce_odr void @_ZNSt14__shared_countILN9__gnu_cxx12_Lock_policyE2EEC2Ev(ptr noundef nonnull align 8 dereferenceable(8) %0) unnamed_addr #0 comdat align 2 {
  %2 = alloca ptr, align 8
  store ptr %0, ptr %2, align 8, !tbaa !42
  %3 = load ptr, ptr %2, align 8
  %4 = getelementptr inbounds nuw %"class.std::__shared_count", ptr %3, i32 0, i32 0
  store ptr null, ptr %4, align 8, !tbaa !50
  ret void
}

; Function Attrs: mustprogress nounwind uwtable
define linkonce_odr void @_ZN5folly8Executor9KeepAliveIS0_E5resetEv(ptr noundef nonnull align 8 dereferenceable(8) %0) #0 comdat align 2 {
  %2 = alloca ptr, align 8
  %3 = alloca ptr, align 8
  %4 = alloca i64, align 8
  %5 = alloca i32, align 4
  store ptr %0, ptr %2, align 8, !tbaa !270
  %6 = load ptr, ptr %2, align 8
  call void @llvm.lifetime.start.p0(i64 8, ptr %3) #33
  %7 = call noundef ptr @_ZNK5folly8Executor9KeepAliveIS0_E3getEv(ptr noundef nonnull align 8 dereferenceable(8) %6)
  store ptr %7, ptr %3, align 8, !tbaa !12
  %8 = load ptr, ptr %3, align 8, !tbaa !12
  %9 = icmp ne ptr %8, null
  br i1 %9, label %10, label %23

10:                                               ; preds = %1
  call void @llvm.lifetime.start.p0(i64 8, ptr %4) #33
  %11 = getelementptr inbounds nuw %"class.folly::Executor::KeepAlive", ptr %6, i32 0, i32 0
  call void @llvm.lifetime.start.p0(i64 4, ptr %5) #33
  store i32 0, ptr %5, align 4, !tbaa !132
  %12 = call noundef i64 @_ZSt8exchangeImiET_RS0_OT0_(ptr noundef nonnull align 8 dereferenceable(8) %11, ptr noundef nonnull align 4 dereferenceable(4) %5) #33
  %13 = and i64 %12, 3
  call void @llvm.lifetime.end.p0(i64 4, ptr %5) #33
  store i64 %13, ptr %4, align 8, !tbaa !23
  %14 = load i64, ptr %4, align 8, !tbaa !23
  %15 = and i64 %14, 3
  %16 = icmp ne i64 %15, 0
  br i1 %16, label %22, label %17

17:                                               ; preds = %10
  %18 = load ptr, ptr %3, align 8, !tbaa !12
  %19 = load ptr, ptr %18, align 8, !tbaa !21
  %20 = getelementptr inbounds ptr, ptr %19, i64 6
  %21 = load ptr, ptr %20, align 8
  call void %21(ptr noundef nonnull align 8 dereferenceable(8) %18) #33
  br label %22

22:                                               ; preds = %17, %10
  call void @llvm.lifetime.end.p0(i64 8, ptr %4) #33
  br label %23

23:                                               ; preds = %22, %1
  call void @llvm.lifetime.end.p0(i64 8, ptr %3) #33
  ret void
}

; Function Attrs: mustprogress nounwind uwtable
define linkonce_odr void @_ZN5folly8Executor13makeKeepAliveINS_14StrandExecutorEEENS0_9KeepAliveIT_EEPS4_(ptr dead_on_unwind noalias writable sret(%"class.folly::Executor::KeepAlive.193") align 8 %0, ptr noundef %1) #0 comdat align 2 {
  %3 = alloca ptr, align 8
  %4 = alloca ptr, align 8
  store ptr %0, ptr %3, align 8
  store ptr %1, ptr %4, align 8, !tbaa !16
  %5 = load ptr, ptr %4, align 8, !tbaa !16
  call void @_ZN5folly8Executor9KeepAliveINS_14StrandExecutorEEC2EPS2_m(ptr noundef nonnull align 8 dereferenceable(8) %0, ptr noundef %5, i64 noundef 0) #33
  ret void
}

; Function Attrs: mustprogress nounwind uwtable
define void @_ZN5folly14StrandExecutorC1ESt10shared_ptrINS_13StrandContextEENS_8Executor9KeepAliveIS4_EE(ptr noundef nonnull align 8 dereferenceable(40) %0, ptr noundef %1, ptr noundef %2) unnamed_addr #0 align 2 {
  %4 = alloca ptr, align 8
  %5 = alloca ptr, align 8
  %6 = alloca ptr, align 8
  store ptr %0, ptr %4, align 8, !tbaa !16
  store ptr %1, ptr %5, align 8, !tbaa !32
  store ptr %2, ptr %6, align 8, !tbaa !270
  %7 = load ptr, ptr %4, align 8
  call void @_ZN5folly8ExecutorC2Ev(ptr noundef nonnull align 8 dereferenceable(8) %7) #33
  call void @_ZN5folly18SerializedExecutorC2Ev(ptr noundef nonnull align 8 dereferenceable(8) %7, ptr noundef getelementptr inbounds ([6 x ptr], ptr @_ZTTN5folly14StrandExecutorE, i64 0, i64 1)) #33
  store ptr getelementptr inbounds inrange(-72, 56) ({ [16 x ptr] }, ptr @_ZTVN5folly14StrandExecutorE, i32 0, i32 0, i32 9), ptr %7, align 8, !tbaa !21
  store ptr getelementptr inbounds inrange(-72, 56) ({ [16 x ptr] }, ptr @_ZTVN5folly14StrandExecutorE, i32 0, i32 0, i32 9), ptr %7, align 8, !tbaa !21
  %8 = getelementptr inbounds nuw %"class.folly::StrandExecutor", ptr %7, i32 0, i32 1
  call void @_ZNSt6atomicImEC2Em(ptr noundef nonnull align 8 dereferenceable(8) %8, i64 noundef 1) #33
  %9 = getelementptr inbounds nuw %"class.folly::StrandExecutor", ptr %7, i32 0, i32 2
  call void @_ZN5folly8Executor9KeepAliveIS0_EC2EOS2_(ptr noundef nonnull align 8 dereferenceable(8) %9, ptr noundef nonnull align 8 dereferenceable(8) %2) #33
  %10 = getelementptr inbounds nuw %"class.folly::StrandExecutor", ptr %7, i32 0, i32 3
  call void @_ZNSt10shared_ptrIN5folly13StrandContextEEC2EOS2_(ptr noundef nonnull align 8 dereferenceable(16) %10, ptr noundef nonnull align 8 dereferenceable(16) %1) #33
  ret void
}

; Function Attrs: mustprogress nounwind uwtable
define linkonce_odr void @_ZN5folly8Executor9KeepAliveIS0_EC2EOS2_(ptr noundef nonnull align 8 dereferenceable(8) %0, ptr noundef nonnull align 8 dereferenceable(8) %1) unnamed_addr #0 comdat align 2 {
  %3 = alloca ptr, align 8
  %4 = alloca ptr, align 8
  %5 = alloca i32, align 4
  store ptr %0, ptr %3, align 8, !tbaa !270
  store ptr %1, ptr %4, align 8, !tbaa !270
  %6 = load ptr, ptr %3, align 8
  %7 = getelementptr inbounds nuw %"class.folly::Executor::KeepAlive", ptr %6, i32 0, i32 0
  %8 = load ptr, ptr %4, align 8, !tbaa !270
  %9 = getelementptr inbounds nuw %"class.folly::Executor::KeepAlive", ptr %8, i32 0, i32 0
  call void @llvm.lifetime.start.p0(i64 4, ptr %5) #33
  store i32 0, ptr %5, align 4, !tbaa !132
  %10 = call noundef i64 @_ZSt8exchangeImiET_RS0_OT0_(ptr noundef nonnull align 8 dereferenceable(8) %9, ptr noundef nonnull align 4 dereferenceable(4) %5) #33
  call void @llvm.lifetime.end.p0(i64 4, ptr %5) #33
  store i64 %10, ptr %7, align 8, !tbaa !272
  ret void
}

; Function Attrs: mustprogress nounwind uwtable
define linkonce_odr void @_ZNSt12__shared_ptrIN5folly13StrandContextELN9__gnu_cxx12_Lock_policyE2EEC2EOS4_(ptr noundef nonnull align 8 dereferenceable(16) %0, ptr noundef nonnull align 8 dereferenceable(16) %1) unnamed_addr #0 comdat align 2 {
  %3 = alloca ptr, align 8
  %4 = alloca ptr, align 8
  store ptr %0, ptr %3, align 8, !tbaa !35
  store ptr %1, ptr %4, align 8, !tbaa !35
  %5 = load ptr, ptr %3, align 8
  %6 = getelementptr inbounds nuw %"class.std::__shared_ptr", ptr %5, i32 0, i32 0
  %7 = load ptr, ptr %4, align 8, !tbaa !35
  %8 = getelementptr inbounds nuw %"class.std::__shared_ptr", ptr %7, i32 0, i32 0
  %9 = load ptr, ptr %8, align 8, !tbaa !37
  store ptr %9, ptr %6, align 8, !tbaa !37
  %10 = getelementptr inbounds nuw %"class.std::__shared_ptr", ptr %5, i32 0, i32 1
  call void @_ZNSt14__shared_countILN9__gnu_cxx12_Lock_policyE2EEC2Ev(ptr noundef nonnull align 8 dereferenceable(8) %10) #33
  %11 = getelementptr inbounds nuw %"class.std::__shared_ptr", ptr %5, i32 0, i32 1
  %12 = load ptr, ptr %4, align 8, !tbaa !35
  %13 = getelementptr inbounds nuw %"class.std::__shared_ptr", ptr %12, i32 0, i32 1
  call void @_ZNSt14__shared_countILN9__gnu_cxx12_Lock_policyE2EE7_M_swapERS2_(ptr noundef nonnull align 8 dereferenceable(8) %11, ptr noundef nonnull align 8 dereferenceable(8) %13) #33
  %14 = load ptr, ptr %4, align 8, !tbaa !35
  %15 = getelementptr inbounds nuw %"class.std::__shared_ptr", ptr %14, i32 0, i32 0
  store ptr null, ptr %15, align 8, !tbaa !37
  ret void
}

; Function Attrs: mustprogress nounwind uwtable
define linkonce_odr void @_ZN5folly8Executor9KeepAliveIS0_ED2Ev(ptr noundef nonnull align 8 dereferenceable(8) %0) unnamed_addr #0 comdat align 2 {
  %2 = alloca ptr, align 8
  store ptr %0, ptr %2, align 8, !tbaa !270
  %3 = load ptr, ptr %2, align 8
  call void @_ZN5folly8Executor9KeepAliveIS0_E5resetEv(ptr noundef nonnull align 8 dereferenceable(8) %3) #33
  ret void
}

; Function Attrs: mustprogress uwtable
define void @_ZN5folly14StrandExecutor6createESt10shared_ptrINS_13StrandContextEENS_8Executor9KeepAliveIS4_EE(ptr dead_on_unwind noalias writable sret(%"class.folly::Executor::KeepAlive.193") align 8 %0, ptr noundef %1, ptr noundef %2) #4 align 2 {
  %4 = alloca ptr, align 8
  %5 = alloca ptr, align 8
  %6 = alloca ptr, align 8
  %7 = alloca ptr, align 8
  %8 = alloca %"class.std::shared_ptr", align 8
  %9 = alloca %"class.folly::Executor::KeepAlive", align 8
  store ptr %0, ptr %4, align 8
  store ptr %1, ptr %5, align 8, !tbaa !32
  store ptr %2, ptr %6, align 8, !tbaa !270
  call void @llvm.lifetime.start.p0(i64 8, ptr %7) #33
  %10 = call noalias noundef nonnull ptr @_Znwm(i64 noundef 40) #41
  call void @_ZNSt10shared_ptrIN5folly13StrandContextEEC2EOS2_(ptr noundef nonnull align 8 dereferenceable(16) %8, ptr noundef nonnull align 8 dereferenceable(16) %1) #33
  call void @_ZN5folly8Executor9KeepAliveIS0_EC2EOS2_(ptr noundef nonnull align 8 dereferenceable(8) %9, ptr noundef nonnull align 8 dereferenceable(8) %2) #33
  call void @_ZN5folly14StrandExecutorC1ESt10shared_ptrINS_13StrandContextEENS_8Executor9KeepAliveIS4_EE(ptr noundef nonnull align 8 dereferenceable(40) %10, ptr noundef %8, ptr noundef %9) #33
  call void @_ZN5folly8Executor9KeepAliveIS0_ED2Ev(ptr noundef nonnull align 8 dereferenceable(8) %9) #33
  call void @_ZNSt12__shared_ptrIN5folly13StrandContextELN9__gnu_cxx12_Lock_policyE2EED2Ev(ptr noundef nonnull align 8 dereferenceable(16) %8) #33
  store ptr %10, ptr %7, align 8, !tbaa !16
  %11 = load ptr, ptr %7, align 8, !tbaa !16
  call void @_ZN5folly8Executor13makeKeepAliveINS_14StrandExecutorEEENS0_9KeepAliveIT_EEPS4_(ptr dead_on_unwind writable sret(%"class.folly::Executor::KeepAlive.193") align 8 %0, ptr noundef %11)
  call void @llvm.lifetime.end.p0(i64 8, ptr %7) #33
  ret void
}

; Function Attrs: mustprogress nounwind uwtable
define linkonce_odr void @_ZNSt10shared_ptrIN5folly13StrandContextEEC2EOS2_(ptr noundef nonnull align 8 dereferenceable(16) %0, ptr noundef nonnull align 8 dereferenceable(16) %1) unnamed_addr #0 comdat align 2 {
  %3 = alloca ptr, align 8
  %4 = alloca ptr, align 8
  store ptr %0, ptr %3, align 8, !tbaa !32
  store ptr %1, ptr %4, align 8, !tbaa !32
  %5 = load ptr, ptr %3, align 8
  %6 = load ptr, ptr %4, align 8, !tbaa !32
  call void @_ZNSt12__shared_ptrIN5folly13StrandContextELN9__gnu_cxx12_Lock_policyE2EEC2EOS4_(ptr noundef nonnull align 8 dereferenceable(16) %5, ptr noundef nonnull align 8 dereferenceable(16) %6) #33
  ret void
}

; Function Attrs: mustprogress uwtable
define void @_ZN5folly14StrandExecutor6createESt10shared_ptrINS_13StrandContextEE(ptr dead_on_unwind noalias writable sret(%"class.folly::Executor::KeepAlive.193") align 8 %0, ptr noundef %1) #4 align 2 personality ptr @__gxx_personality_v0 {
  %3 = alloca ptr, align 8
  %4 = alloca ptr, align 8
  %5 = alloca %"class.std::shared_ptr", align 8
  %6 = alloca %"class.folly::Executor::KeepAlive", align 8
  %7 = alloca ptr, align 8
  %8 = alloca i32, align 4
  store ptr %0, ptr %3, align 8
  store ptr %1, ptr %4, align 8, !tbaa !32
  call void @_ZNSt10shared_ptrIN5folly13StrandContextEEC2EOS2_(ptr noundef nonnull align 8 dereferenceable(16) %5, ptr noundef nonnull align 8 dereferenceable(16) %1) #33
  invoke void @_ZN5folly20getGlobalCPUExecutorEv(ptr dead_on_unwind writable sret(%"class.folly::Executor::KeepAlive") align 8 %6)
          to label %9 unwind label %11

9:                                                ; preds = %2
  invoke void @_ZN5folly14StrandExecutor6createESt10shared_ptrINS_13StrandContextEENS_8Executor9KeepAliveIS4_EE(ptr dead_on_unwind writable sret(%"class.folly::Executor::KeepAlive.193") align 8 %0, ptr noundef %5, ptr noundef %6)
          to label %10 unwind label %15

10:                                               ; preds = %9
  call void @_ZN5folly8Executor9KeepAliveIS0_ED2Ev(ptr noundef nonnull align 8 dereferenceable(8) %6) #33
  call void @_ZNSt12__shared_ptrIN5folly13StrandContextELN9__gnu_cxx12_Lock_policyE2EED2Ev(ptr noundef nonnull align 8 dereferenceable(16) %5) #33
  ret void

11:                                               ; preds = %2
  %12 = landingpad { ptr, i32 }
          cleanup
  %13 = extractvalue { ptr, i32 } %12, 0
  store ptr %13, ptr %7, align 8
  %14 = extractvalue { ptr, i32 } %12, 1
  store i32 %14, ptr %8, align 4
  br label %19

15:                                               ; preds = %9
  %16 = landingpad { ptr, i32 }
          cleanup
  %17 = extractvalue { ptr, i32 } %16, 0
  store ptr %17, ptr %7, align 8
  %18 = extractvalue { ptr, i32 } %16, 1
  store i32 %18, ptr %8, align 4
  call void @_ZN5folly8Executor9KeepAliveIS0_ED2Ev(ptr noundef nonnull align 8 dereferenceable(8) %6) #33
  br label %19

19:                                               ; preds = %15, %11
  call void @_ZNSt12__shared_ptrIN5folly13StrandContextELN9__gnu_cxx12_Lock_policyE2EED2Ev(ptr noundef nonnull align 8 dereferenceable(16) %5) #33
  br label %20

20:                                               ; preds = %19
  %21 = load ptr, ptr %7, align 8
  %22 = load i32, ptr %8, align 4
  %23 = insertvalue { ptr, i32 } poison, ptr %21, 0
  %24 = insertvalue { ptr, i32 } %23, i32 %22, 1
  resume { ptr, i32 } %24
}