; Function Attrs: mustprogress uwtable
define void @_ZN5folly14StrandExecutor6createESt10shared_ptrINS_13StrandContextEE(ptr dead_on_unwind noalias writable writeonly sret(%"class.folly::Executor::KeepAlive.193") align 8 captures(none) %0, ptr noundef captures(none) %1) local_unnamed_addr #4 align 2 personality ptr @__gxx_personality_v0 {
  %3 = alloca %"class.std::shared_ptr", align 8
  %4 = alloca %"class.folly::Executor::KeepAlive", align 8
  %5 = load ptr, ptr %1, align 8, !tbaa !26
  store ptr %5, ptr %3, align 8, !tbaa !26
  %6 = getelementptr inbounds nuw i8, ptr %3, i64 8
  %7 = getelementptr inbounds nuw i8, ptr %1, i64 8
  %8 = load ptr, ptr %7, align 8, !tbaa !7
  store ptr null, ptr %7, align 8, !tbaa !7
  store ptr %8, ptr %6, align 8, !tbaa !7
  store ptr null, ptr %1, align 8, !tbaa !26
  invoke void @_ZN5folly20getGlobalCPUExecutorEv(ptr dead_on_unwind nonnull writable sret(%"class.folly::Executor::KeepAlive") align 8 %4)
          to label %9 unwind label %17

9:                                                ; preds = %2
  call void @llvm.experimental.noalias.scope.decl(metadata !491)
  %10 = invoke noalias noundef nonnull dereferenceable(40) ptr @_Znwm(i64 noundef 40) #41
          to label %_ZNSt12__shared_ptrIN5folly13StrandContextELN9__gnu_cxx12_Lock_policyE2EED2Ev.exit unwind label %19

_ZNSt12__shared_ptrIN5folly13StrandContextELN9__gnu_cxx12_Lock_policyE2EED2Ev.exit: ; preds = %9
  %11 = load i64, ptr %4, align 8, !tbaa !25, !noalias !491
  store ptr getelementptr inbounds nuw inrange(-72, 56) (i8, ptr @_ZTVN5folly14StrandExecutorE, i64 72), ptr %10, align 8, !tbaa !17, !noalias !491
  %12 = getelementptr inbounds nuw i8, ptr %10, i64 8
  store i64 1, ptr %12, align 8, !tbaa !55, !noalias !491
  %13 = getelementptr inbounds nuw i8, ptr %10, i64 16
  store i64 %11, ptr %13, align 8, !tbaa !22, !noalias !491
  %14 = getelementptr inbounds nuw i8, ptr %10, i64 24
  store ptr %5, ptr %14, align 8, !tbaa !26, !noalias !491
  %15 = getelementptr inbounds nuw i8, ptr %10, i64 32
  store ptr %8, ptr %15, align 8, !tbaa !7, !noalias !491
  %16 = ptrtoint ptr %10 to i64
  store i64 %16, ptr %0, align 8, !tbaa !483, !alias.scope !494
  ret void

17:                                               ; preds = %2
  %18 = landingpad { ptr, i32 }
          cleanup
  br label %_ZN5folly8Executor9KeepAliveIS0_ED2Ev.exit6

19:                                               ; preds = %9
  %20 = landingpad { ptr, i32 }
          cleanup
  %21 = load i64, ptr %4, align 8, !tbaa !22
  %22 = and i64 %21, -4
  %23 = inttoptr i64 %22 to ptr
  %.not.i.i4 = icmp eq i64 %22, 0
  br i1 %.not.i.i4, label %_ZN5folly8Executor9KeepAliveIS0_ED2Ev.exit6, label %24

24:                                               ; preds = %19
  store i64 0, ptr %4, align 8, !tbaa !25
  %25 = and i64 %21, 3
  %.not3.i.i5 = icmp eq i64 %25, 0
  br i1 %.not3.i.i5, label %26, label %_ZN5folly8Executor9KeepAliveIS0_ED2Ev.exit6

26:                                               ; preds = %24
  %27 = load ptr, ptr %23, align 8, !tbaa !17
  %28 = getelementptr inbounds nuw i8, ptr %27, i64 48
  %29 = load ptr, ptr %28, align 8
  call void %29(ptr noundef nonnull align 8 dereferenceable(8) %23) #28
  br label %_ZN5folly8Executor9KeepAliveIS0_ED2Ev.exit6

_ZN5folly8Executor9KeepAliveIS0_ED2Ev.exit6:      ; preds = %26, %24, %19, %17
  %.pn = phi { ptr, i32 } [ %18, %17 ], [ %20, %19 ], [ %20, %24 ], [ %20, %26 ]
  call void @_ZNSt12__shared_ptrIN5folly13StrandContextELN9__gnu_cxx12_Lock_policyE2EED2Ev(ptr noundef nonnull align 8 dereferenceable(16) %3) #28
  resume { ptr, i32 } %.pn
}